target datalayout = "e-m:e-p270:32:32-p271:32:32-p272:64:64-i64:64-i128:128-f80:128-n8:16:32:64-S128"
target triple = "x86_64-pc-linux-gnu"

%"class.std::__cxx11::basic_string" = type { %"struct.std::__cxx11::basic_string<char>::_Alloc_hider", i64, %union.anon }
%"struct.std::__cxx11::basic_string<char>::_Alloc_hider" = type { ptr }
%union.anon = type { i64, [8 x i8] }

; Function Attrs: mustprogress nounwind uwtable
define available_externally noundef ptr @_ZNKSt7__cxx1112basic_stringIcSt11char_traitsIcESaIcEE7_M_dataEv(ptr noundef nonnull align 8 dereferenceable(32) %0) #4 align 2 {
  %2 = alloca ptr, align 8
  store ptr %0, ptr %2, align 8, !tbaa !24
  %3 = load ptr, ptr %2, align 8
  %4 = getelementptr inbounds nuw %"class.std::__cxx11::basic_string", ptr %3, i32 0, i32 0
  %5 = getelementptr inbounds nuw %"struct.std::__cxx11::basic_string<char>::_Alloc_hider", ptr %4, i32 0, i32 0
  %6 = load ptr, ptr %5, align 8, !tbaa !358
  ret ptr %6
}

; Function Attrs: mustprogress nounwind uwtable
define internal noundef zeroext i1 @_ZN12_GLOBAL__N_114VersionCompareEN13cmSystemTools9CompareOpEPKcS3_(i32 noundef %0, ptr noundef %1, ptr noundef %2) #4 {
  %4 = alloca i1, align 1
  %5 = alloca i32, align 4
  %6 = alloca ptr, align 8
  %7 = alloca ptr, align 8
  %8 = alloca ptr, align 8
  %9 = alloca ptr, align 8
  %10 = alloca ptr, align 8
  %11 = alloca ptr, align 8
  %12 = alloca i64, align 8
  %13 = alloca i32, align 4
  store i32 %0, ptr %5, align 4, !tbaa !316
  store ptr %1, ptr %6, align 8, !tbaa !33
  store ptr %2, ptr %7, align 8, !tbaa !33
  call void @llvm.lifetime.start.p0(i64 8, ptr %8) #3
  %14 = load ptr, ptr %6, align 8, !tbaa !33
  store ptr %14, ptr %8, align 8, !tbaa !33
  call void @llvm.lifetime.start.p0(i64 8, ptr %9) #3
  %15 = load ptr, ptr %7, align 8, !tbaa !33
  store ptr %15, ptr %9, align 8, !tbaa !33
  br label %16

16:                                               ; preds = %149, %3
  %17 = load ptr, ptr %8, align 8, !tbaa !33
  %18 = load i8, ptr %17, align 1, !tbaa !28
  %19 = sext i8 %18 to i32
  %20 = icmp sge i32 %19, 48
  br i1 %20, label %21, label %26

21:                                               ; preds = %16
  %22 = load ptr, ptr %8, align 8, !tbaa !33
  %23 = load i8, ptr %22, align 1, !tbaa !28
  %24 = sext i8 %23 to i32
  %25 = icmp sle i32 %24, 57
  br i1 %25, label %38, label %26

26:                                               ; preds = %21, %16
  %27 = load ptr, ptr %9, align 8, !tbaa !33
  %28 = load i8, ptr %27, align 1, !tbaa !28
  %29 = sext i8 %28 to i32
  %30 = icmp sge i32 %29, 48
  br i1 %30, label %31, label %36

31:                                               ; preds = %26
  %32 = load ptr, ptr %9, align 8, !tbaa !33
  %33 = load i8, ptr %32, align 1, !tbaa !28
  %34 = sext i8 %33 to i32
  %35 = icmp sle i32 %34, 57
  br label %36

36:                                               ; preds = %31, %26
  %37 = phi i1 [ false, %26 ], [ %35, %31 ]
  br label %38

38:                                               ; preds = %36, %21
  %39 = phi i1 [ true, %21 ], [ %37, %36 ]
  br i1 %39, label %40, label %150

40:                                               ; preds = %38
  br label %41

41:                                               ; preds = %46, %40
  %42 = load ptr, ptr %8, align 8, !tbaa !33
  %43 = load i8, ptr %42, align 1, !tbaa !28
  %44 = sext i8 %43 to i32
  %45 = icmp eq i32 %44, 48
  br i1 %45, label %46, label %49

46:                                               ; preds = %41
  %47 = load ptr, ptr %8, align 8, !tbaa !33
  %48 = getelementptr inbounds nuw i8, ptr %47, i32 1
  store ptr %48, ptr %8, align 8, !tbaa !33
  br label %41, !llvm.loop !318

49:                                               ; preds = %41
  br label %50

50:                                               ; preds = %55, %49
  %51 = load ptr, ptr %9, align 8, !tbaa !33
  %52 = load i8, ptr %51, align 1, !tbaa !28
  %53 = sext i8 %52 to i32
  %54 = icmp eq i32 %53, 48
  br i1 %54, label %55, label %58

55:                                               ; preds = %50
  %56 = load ptr, ptr %9, align 8, !tbaa !33
  %57 = getelementptr inbounds nuw i8, ptr %56, i32 1
  store ptr %57, ptr %9, align 8, !tbaa !33
  br label %50, !llvm.loop !319

58:                                               ; preds = %50
  call void @llvm.lifetime.start.p0(i64 8, ptr %10) #3
  %59 = load ptr, ptr %8, align 8, !tbaa !33
  store ptr %59, ptr %10, align 8, !tbaa !33
  call void @llvm.lifetime.start.p0(i64 8, ptr %11) #3
  %60 = load ptr, ptr %9, align 8, !tbaa !33
  store ptr %60, ptr %11, align 8, !tbaa !33
  br label %61

61:                                               ; preds = %73, %58
  %62 = load ptr, ptr %8, align 8, !tbaa !33
  %63 = load i8, ptr %62, align 1, !tbaa !28
  %64 = sext i8 %63 to i32
  %65 = icmp sge i32 %64, 48
  br i1 %65, label %66, label %71

66:                                               ; preds = %61
  %67 = load ptr, ptr %8, align 8, !tbaa !33
  %68 = load i8, ptr %67, align 1, !tbaa !28
  %69 = sext i8 %68 to i32
  %70 = icmp sle i32 %69, 57
  br label %71

71:                                               ; preds = %66, %61
  %72 = phi i1 [ false, %61 ], [ %70, %66 ]
  br i1 %72, label %73, label %76

73:                                               ; preds = %71
  %74 = load ptr, ptr %8, align 8, !tbaa !33
  %75 = getelementptr inbounds nuw i8, ptr %74, i32 1
  store ptr %75, ptr %8, align 8, !tbaa !33
  br label %61, !llvm.loop !320

76:                                               ; preds = %71
  br label %77

77:                                               ; preds = %89, %76
  %78 = load ptr, ptr %9, align 8, !tbaa !33
  %79 = load i8, ptr %78, align 1, !tbaa !28
  %80 = sext i8 %79 to i32
  %81 = icmp sge i32 %80, 48
  br i1 %81, label %82, label %87

82:                                               ; preds = %77
  %83 = load ptr, ptr %9, align 8, !tbaa !33
  %84 = load i8, ptr %83, align 1, !tbaa !28
  %85 = sext i8 %84 to i32
  %86 = icmp sle i32 %85, 57
  br label %87

87:                                               ; preds = %82, %77
  %88 = phi i1 [ false, %77 ], [ %86, %82 ]
  br i1 %88, label %89, label %92

89:                                               ; preds = %87
  %90 = load ptr, ptr %9, align 8, !tbaa !33
  %91 = getelementptr inbounds nuw i8, ptr %90, i32 1
  store ptr %91, ptr %9, align 8, !tbaa !33
  br label %77, !llvm.loop !321

92:                                               ; preds = %87
  call void @llvm.lifetime.start.p0(i64 8, ptr %12) #3
  %93 = load ptr, ptr %8, align 8, !tbaa !33
  %94 = load ptr, ptr %10, align 8, !tbaa !33
  %95 = ptrtoint ptr %93 to i64
  %96 = ptrtoint ptr %94 to i64
  %97 = sub i64 %95, %96
  %98 = load ptr, ptr %9, align 8, !tbaa !33
  %99 = load ptr, ptr %11, align 8, !tbaa !33
  %100 = ptrtoint ptr %98 to i64
  %101 = ptrtoint ptr %99 to i64
  %102 = sub i64 %100, %101
  %103 = sub nsw i64 %97, %102
  store i64 %103, ptr %12, align 8, !tbaa !45
  %104 = load i64, ptr %12, align 8, !tbaa !45
  %105 = icmp eq i64 %104, 0
  br i1 %105, label %106, label %116

106:                                              ; preds = %92
  %107 = load ptr, ptr %10, align 8, !tbaa !33
  %108 = load ptr, ptr %11, align 8, !tbaa !33
  %109 = load ptr, ptr %8, align 8, !tbaa !33
  %110 = load ptr, ptr %10, align 8, !tbaa !33
  %111 = ptrtoint ptr %109 to i64
  %112 = ptrtoint ptr %110 to i64
  %113 = sub i64 %111, %112
  %114 = call i32 @strncmp(ptr noundef %107, ptr noundef %108, i64 noundef %113) #27
  %115 = sext i32 %114 to i64
  store i64 %115, ptr %12, align 8, !tbaa !45
  br label %116

116:                                              ; preds = %106, %92
  %117 = load i64, ptr %12, align 8, !tbaa !45
  %118 = icmp slt i64 %117, 0
  br i1 %118, label %119, label %123

119:                                              ; preds = %116
  %120 = load i32, ptr %5, align 4, !tbaa !316
  %121 = and i32 %120, 2
  %122 = icmp ne i32 %121, 0
  store i1 %122, ptr %4, align 1
  store i32 1, ptr %13, align 4
  br label %147

123:                                              ; preds = %116
  %124 = load i64, ptr %12, align 8, !tbaa !45
  %125 = icmp sgt i64 %124, 0
  br i1 %125, label %126, label %130

126:                                              ; preds = %123
  %127 = load i32, ptr %5, align 4, !tbaa !316
  %128 = and i32 %127, 4
  %129 = icmp ne i32 %128, 0
  store i1 %129, ptr %4, align 1
  store i32 1, ptr %13, align 4
  br label %147

130:                                              ; preds = %123
  %131 = load ptr, ptr %9, align 8, !tbaa !33
  %132 = load i8, ptr %131, align 1, !tbaa !28
  %133 = sext i8 %132 to i32
  %134 = icmp eq i32 %133, 46
  br i1 %134, label %135, label %138

135:                                              ; preds = %130
  %136 = load ptr, ptr %9, align 8, !tbaa !33
  %137 = getelementptr inbounds nuw i8, ptr %136, i32 1
  store ptr %137, ptr %9, align 8, !tbaa !33
  br label %138

138:                                              ; preds = %135, %130
  %139 = load ptr, ptr %8, align 8, !tbaa !33
  %140 = load i8, ptr %139, align 1, !tbaa !28
  %141 = sext i8 %140 to i32
  %142 = icmp eq i32 %141, 46
  br i1 %142, label %143, label %146

143:                                              ; preds = %138
  %144 = load ptr, ptr %8, align 8, !tbaa !33
  %145 = getelementptr inbounds nuw i8, ptr %144, i32 1
  store ptr %145, ptr %8, align 8, !tbaa !33
  br label %146

146:                                              ; preds = %143, %138
  store i32 0, ptr %13, align 4
  br label %147

147:                                              ; preds = %146, %126, %119
  call void @llvm.lifetime.end.p0(i64 8, ptr %12) #3
  call void @llvm.lifetime.end.p0(i64 8, ptr %11) #3
  call void @llvm.lifetime.end.p0(i64 8, ptr %10) #3
  %148 = load i32, ptr %13, align 4
  switch i32 %148, label %154 [
    i32 0, label %149
  ]

149:                                              ; preds = %147
  br label %16, !llvm.loop !322

150:                                              ; preds = %38
  %151 = load i32, ptr %5, align 4, !tbaa !316
  %152 = and i32 %151, 1
  %153 = icmp ne i32 %152, 0
  store i1 %153, ptr %4, align 1
  store i32 1, ptr %13, align 4
  br label %154

154:                                              ; preds = %150, %147
  call void @llvm.lifetime.end.p0(i64 8, ptr %9) #3
  call void @llvm.lifetime.end.p0(i64 8, ptr %8) #3
  %155 = load i1, ptr %4, align 1
  ret i1 %155
}

; Function Attrs: mustprogress nounwind uwtable
define available_externally noundef ptr @_ZNKSt7__cxx1112basic_stringIcSt11char_traitsIcESaIcEE5c_strEv(ptr noundef nonnull align 8 dereferenceable(32) %0) #4 align 2 {
  %2 = alloca ptr, align 8
  store ptr %0, ptr %2, align 8, !tbaa !24
  %3 = load ptr, ptr %2, align 8
  %4 = call noundef ptr @_ZNKSt7__cxx1112basic_stringIcSt11char_traitsIcESaIcEE7_M_dataEv(ptr noundef nonnull align 8 dereferenceable(32) %3)
  ret ptr %4
}

; Function Attrs: mustprogress uwtable
define dso_local noundef zeroext i1 @_ZN13cmSystemTools14VersionCompareENS_9CompareOpERKNSt7__cxx1112basic_stringIcSt11char_traitsIcESaIcEEEPKc(i32 noundef %0, ptr noundef nonnull align 8 dereferenceable(32) %1, ptr noundef %2) #6 align 2 {
  %4 = alloca i32, align 4
  %5 = alloca ptr, align 8
  %6 = alloca ptr, align 8
  store i32 %0, ptr %4, align 4, !tbaa !316
  store ptr %1, ptr %5, align 8, !tbaa !24
  store ptr %2, ptr %6, align 8, !tbaa !33
  %7 = load i32, ptr %4, align 4, !tbaa !316
  %8 = load ptr, ptr %5, align 8, !tbaa !24
  %9 = call noundef ptr @_ZNKSt7__cxx1112basic_stringIcSt11char_traitsIcESaIcEE5c_strEv(ptr noundef nonnull align 8 dereferenceable(32) %8) #3
  %10 = load ptr, ptr %6, align 8, !tbaa !33
  %11 = call noundef zeroext i1 @_ZN12_GLOBAL__N_114VersionCompareEN13cmSystemTools9CompareOpEPKcS3_(i32 noundef %7, ptr noundef %9, ptr noundef %10)
  ret i1 %11
}