; Function Attrs: mustprogress nofree nounwind willreturn memory(read, inaccessiblemem: none) uwtable
define dso_local noundef zeroext i1 @_ZN13cmSystemTools14VersionCompareENS_9CompareOpERKNSt7__cxx1112basic_stringIcSt11char_traitsIcESaIcEEEPKc(i32 noundef %0, ptr noundef nonnull readonly align 8 captures(none) dereferenceable(32) %1, ptr noundef %2) local_unnamed_addr #20 align 2 {
  %4 = load ptr, ptr %1, align 8, !tbaa !13
  br label %5

5:                                                ; preds = %36, %3
  %.048.i = phi ptr [ %2, %3 ], [ %spec.select.i, %36 ]
  %.045.i = phi ptr [ %4, %3 ], [ %.4.i, %36 ]
  %6 = load i8, ptr %.045.i, align 1, !tbaa !26
  %7 = add i8 %6, -48
  %or.cond.i = icmp ult i8 %7, 10
  br i1 %or.cond.i, label %.critedge.i.preheader, label %8

8:                                                ; preds = %5
  %9 = load i8, ptr %.048.i, align 1, !tbaa !26
  %10 = add i8 %9, -48
  %or.cond58.i = icmp ult i8 %10, 10
  br i1 %or.cond58.i, label %.critedge.i.preheader, label %_ZN12_GLOBAL__N_114VersionCompareEN13cmSystemTools9CompareOpEPKcS3_.exit

.critedge.i.preheader:                            ; preds = %8, %5
  br label %.critedge.i

.critedge.i:                                      ; preds = %.critedge.i.preheader, %.critedge.i
  %.146.i = phi ptr [ %13, %.critedge.i ], [ %.045.i, %.critedge.i.preheader ]
  %11 = load i8, ptr %.146.i, align 1, !tbaa !26
  %12 = icmp eq i8 %11, 48
  %13 = getelementptr inbounds nuw i8, ptr %.146.i, i64 1
  br i1 %12, label %.critedge.i, label %.preheader65.i, !llvm.loop !718

.preheader65.i:                                   ; preds = %.critedge.i, %.preheader65.i
  %.149.i = phi ptr [ %16, %.preheader65.i ], [ %.048.i, %.critedge.i ]
  %14 = load i8, ptr %.149.i, align 1, !tbaa !26
  %15 = icmp eq i8 %14, 48
  %16 = getelementptr inbounds nuw i8, ptr %.149.i, i64 1
  br i1 %15, label %.preheader65.i, label %.preheader.i, !llvm.loop !719

.preheader.i:                                     ; preds = %.preheader65.i, %.preheader.i
  %.247.i = phi ptr [ %19, %.preheader.i ], [ %.146.i, %.preheader65.i ]
  %17 = load i8, ptr %.247.i, align 1, !tbaa !26
  %18 = add i8 %17, -48
  %or.cond59.i = icmp ult i8 %18, 10
  %19 = getelementptr inbounds nuw i8, ptr %.247.i, i64 1
  br i1 %or.cond59.i, label %.preheader.i, label %.critedge4.i, !llvm.loop !720

.critedge4.i:                                     ; preds = %.preheader.i, %.critedge4.i
  %.250.i = phi ptr [ %22, %.critedge4.i ], [ %.149.i, %.preheader.i ]
  %20 = load i8, ptr %.250.i, align 1, !tbaa !26
  %21 = add i8 %20, -48
  %or.cond60.i = icmp ult i8 %21, 10
  %22 = getelementptr inbounds nuw i8, ptr %.250.i, i64 1
  br i1 %or.cond60.i, label %.critedge4.i, label %.critedge6.i, !llvm.loop !721

.critedge6.i:                                     ; preds = %.critedge4.i
  %23 = ptrtoint ptr %.247.i to i64
  %24 = ptrtoint ptr %.146.i to i64
  %25 = sub i64 %23, %24
  %26 = ptrtoint ptr %.250.i to i64
  %27 = ptrtoint ptr %.149.i to i64
  %.neg.i = sub i64 %27, %26
  %28 = add i64 %.neg.i, %25
  %29 = icmp eq i64 %28, 0
  br i1 %29, label %30, label %33

30:                                               ; preds = %.critedge6.i
  %31 = tail call i32 @strncmp(ptr noundef nonnull %.146.i, ptr noundef nonnull %.149.i, i64 noundef %25) #39
  %32 = sext i32 %31 to i64
  br label %33

33:                                               ; preds = %30, %.critedge6.i
  %.043.i = phi i64 [ %32, %30 ], [ %28, %.critedge6.i ]
  %34 = icmp slt i64 %.043.i, 0
  br i1 %34, label %_ZN12_GLOBAL__N_114VersionCompareEN13cmSystemTools9CompareOpEPKcS3_.exit, label %35

35:                                               ; preds = %33
  %.not.i = icmp eq i64 %.043.i, 0
  br i1 %.not.i, label %36, label %_ZN12_GLOBAL__N_114VersionCompareEN13cmSystemTools9CompareOpEPKcS3_.exit

36:                                               ; preds = %35
  %37 = icmp eq i8 %20, 46
  %spec.select.idx.i = zext i1 %37 to i64
  %spec.select.i = getelementptr inbounds nuw i8, ptr %.250.i, i64 %spec.select.idx.i
  %38 = icmp eq i8 %17, 46
  %.4.idx.i = zext i1 %38 to i64
  %.4.i = getelementptr inbounds nuw i8, ptr %.247.i, i64 %.4.idx.i
  br label %5, !llvm.loop !722

_ZN12_GLOBAL__N_114VersionCompareEN13cmSystemTools9CompareOpEPKcS3_.exit: ; preds = %8, %33, %35
  %.sink.i = phi i32 [ 2, %33 ], [ 4, %35 ], [ 1, %8 ]
  %39 = and i32 %.sink.i, %0
  %.2.i = icmp ne i32 %39, 0
  ret i1 %.2.i
}